; Function Attrs: nounwind uwtable
define void @Agi_ManTest(ptr noundef %0) local_unnamed_addr #5 {
  %2 = tail call i32 @Gia_ManSuppSizeTest(ptr noundef %0) #17
  %3 = tail call ptr @Agi_ManFromGia(ptr noundef %0)
  %4 = tail call i32 @Agi_ManSuppSizeTest(ptr noundef %3)
  %5 = getelementptr inbounds nuw i8, ptr %3, i64 72
  %6 = load ptr, ptr %5, align 8, !tbaa !13
  %.not.i = icmp eq ptr %6, null
  br i1 %.not.i, label %8, label %7

7:                                                ; preds = %1
  tail call void @free(ptr noundef nonnull %6) #17
  br label %8

8:                                                ; preds = %7, %1
  %9 = getelementptr inbounds nuw i8, ptr %3, i64 88
  %10 = load ptr, ptr %9, align 8, !tbaa !14
  %.not18.i = icmp eq ptr %10, null
  br i1 %.not18.i, label %12, label %11

11:                                               ; preds = %8
  tail call void @free(ptr noundef nonnull %10) #17
  br label %12

12:                                               ; preds = %11, %8
  %13 = getelementptr inbounds nuw i8, ptr %3, i64 48
  %14 = load ptr, ptr %13, align 8, !tbaa !18
  %.not19.i = icmp eq ptr %14, null
  br i1 %.not19.i, label %16, label %15

15:                                               ; preds = %12
  tail call void @free(ptr noundef nonnull %14) #17
  br label %16

16:                                               ; preds = %15, %12
  %17 = getelementptr inbounds nuw i8, ptr %3, i64 64
  %18 = load ptr, ptr %17, align 8, !tbaa !19
  %.not20.i = icmp eq ptr %18, null
  br i1 %.not20.i, label %Agi_ManFree.exit, label %19

19:                                               ; preds = %16
  tail call void @free(ptr noundef nonnull %18) #17
  br label %Agi_ManFree.exit

Agi_ManFree.exit:                                 ; preds = %16, %19
  tail call void @free(ptr noundef nonnull %3) #17
  ret void
}